(dp0
S'none'
p1
(dp2
(I70
I100
tp3
(dp4
(I0
F0.8
tp5
(dp6
S'c'
p7
F0.5
sS'b'
p8
F0.5
sS'other'
p9
F0.5
ss(F1.6
F2.4
tp10
(dp11
g7
F0.5
sg8
F0.5
sg9
F0.5
ss(F0.8
F1.6
tp12
(dp13
g7
F0.5
sg8
F0.5
sg9
F0.5
sss(I600
I1000
tp14
(dp15
(I0
F0.8
tp16
(dp17
g7
F0.5
sg8
F0.5
sg9
F0.5
ss(F1.6
F2.4
tp18
(dp19
g7
F0.5
sg8
F0.5
sg9
F0.5
ss(F0.8
F1.6
tp20
(dp21
g7
F0.5
sg8
F0.5
sg9
F0.5
sss(I200
I300
tp22
(dp23
(I0
F0.8
tp24
(dp25
g7
F0.5
sg8
F0.5
sg9
F0.5
ss(F1.6
F2.4
tp26
(dp27
g7
F0.5
sg8
F0.5
sg9
F0.5
ss(F0.8
F1.6
tp28
(dp29
g7
F0.5
sg8
F0.5
sg9
F0.5
sss(I100
I140
tp30
(dp31
(I0
F0.8
tp32
(dp33
g7
F0.5
sg8
F0.5
sg9
F0.5
ss(F1.6
F2.4
tp34
(dp35
g7
F0.5
sg8
F0.5
sg9
F0.5
ss(F0.8
F1.6
tp36
(dp37
g7
F0.5
sg8
F0.5
sg9
F0.5
sss(I1000
I-1
tp38
(dp39
(I0
F0.8
tp40
(dp41
g7
F0.5
sg8
F0.5
sg9
F0.5
ss(F1.6
F2.4
tp42
(dp43
g7
F0.5
sg8
F0.5
sg9
F0.5
ss(F0.8
F1.6
tp44
(dp45
g7
F0.5
sg8
F0.5
sg9
F0.5
sss(I50
I70
tp46
(dp47
(I0
F0.8
tp48
(dp49
g7
F0.5
sg8
F0.5
sg9
F0.5
ss(F1.6
F2.4
tp50
(dp51
g7
F0.5
sg8
F0.5
sg9
F0.5
ss(F0.8
F1.6
tp52
(dp53
g7
F0.5
sg8
F0.5
sg9
F0.5
sss(I300
I600
tp54
(dp55
(I0
F0.8
tp56
(dp57
g7
F0.5
sg8
F0.5
sg9
F0.5
ss(F1.6
F2.4
tp58
(dp59
g7
F0.5
sg8
F0.5
sg9
F0.5
ss(F0.8
F1.6
tp60
(dp61
g7
F0.5
sg8
F0.5
sg9
F0.5
sss(I30
I50
tp62
(dp63
(I0
F0.8
tp64
(dp65
g7
F0.5
sg8
F0.5
sg9
F0.5
ss(F1.6
F2.4
tp66
(dp67
g7
F0.5
sg8
F0.5
sg9
F0.5
ss(F0.8
F1.6
tp68
(dp69
g7
F0.5
sg8
F0.5
sg9
F0.5
sss(I140
I200
tp70
(dp71
(I0
F0.8
tp72
(dp73
g7
F0.5
sg8
F0.5
sg9
F0.5
ss(F1.6
F2.4
tp74
(dp75
g7
F0.5
sg8
F0.5
sg9
F0.5
ss(F0.8
F1.6
tp76
(dp77
g7
F0.5
sg8
F0.5
sg9
F0.5
ssssS'TTJets'
p78
(dp79
(I70
I100
tp80
(dp81
(I0
F0.8
tp82
(dp83
g7
F0.11947431302270012
sg8
F0.7302495628675886
sg9
F0.009655516102909113
ss(F1.6
F2.4
tp84
(dp85
g7
F0.09643047416089505
sg8
F0.6225435669262143
sg9
F0.017498750089279338
ss(F0.8
F1.6
tp86
(dp87
g7
F0.11854890952278126
sg8
F0.7035973976272484
sg9
F0.011624632959253449
sss(I600
I1000
tp88
(dp89
(I0
F0.8
tp90
(dp91
g7
F0.16709511568123395
sg8
F0.5290796160361377
sg9
F0.032857616993030206
ss(F1.6
F2.4
tp92
(dp93
g7
F0.14634146341463414
sg8
F0.5384615384615384
sg9
F0.035868005738880916
ss(F0.8
F1.6
tp94
(dp95
g7
F0.15819209039548024
sg8
F0.5167394468704513
sg9
F0.03523489932885906
sss(I200
I300
tp96
(dp97
(I0
F0.8
tp98
(dp99
g7
F0.1309887869520897
sg8
F0.6978072599963148
sg9
F0.013938382425910055
ss(F1.6
F2.4
tp100
(dp101
g7
F0.12204424103737604
sg8
F0.5310463121783876
sg9
F0.02096265391268953
ss(F0.8
F1.6
tp102
(dp103
g7
F0.1311695278969957
sg8
F0.6523076923076923
sg9
F0.0171280276816609
sss(I100
I140
tp104
(dp105
(I0
F0.8
tp106
(dp107
g7
F0.12317073170731707
sg8
F0.7350657526580862
sg9
F0.011343897337729093
ss(F1.6
F2.4
tp108
(dp109
g7
F0.12760882528324388
sg8
F0.6064949201741655
sg9
F0.016930865632002655
ss(F0.8
F1.6
tp110
(dp111
g7
F0.12338728594886231
sg8
F0.6970624595278743
sg9
F0.011697877051942425
sss(I1000
I-1
tp112
(dp113
(I0
F0.8
tp114
(dp115
g7
F0.1875
sg8
F0.4303030303030303
sg9
F0.04747774480712166
ss(F1.6
F2.4
tp116
(dp117
g7
F0.0
sg8
F0.0
sg9
F0.0
ss(F0.8
F1.6
tp118
(dp119
g7
F0.06896551724137931
sg8
F0.4166666666666667
sg9
F0.04186046511627907
sss(I50
I70
tp120
(dp121
(I0
F0.8
tp122
(dp123
g7
F0.11346863468634687
sg8
F0.7136489579568727
sg9
F0.008513382779748469
ss(F1.6
F2.4
tp124
(dp125
g7
F0.12901439645625692
sg8
F0.6289424860853432
sg9
F0.0170269371466578
ss(F0.8
F1.6
tp126
(dp127
g7
F0.11939520333680918
sg8
F0.6889434442625932
sg9
F0.013177695530158214
sss(I300
I600
tp128
(dp129
(I0
F0.8
tp130
(dp131
g7
F0.14497184231697505
sg8
F0.6354564755838641
sg9
F0.02109187477656912
ss(F1.6
F2.4
tp132
(dp133
g7
F0.11254980079681275
sg8
F0.48198504418762744
sg9
F0.026281825648245924
ss(F0.8
F1.6
tp134
(dp135
g7
F0.1424225663716814
sg8
F0.5884578997161779
sg9
F0.03067334718318465
sss(I30
I50
tp136
(dp137
(I0
F0.8
tp138
(dp139
g7
F0.13157158836689037
sg8
F0.6810582606248241
sg9
F0.011805204403127309
ss(F1.6
F2.4
tp140
(dp141
g7
F0.13751230718739743
sg8
F0.5884188626907073
sg9
F0.019115890083632018
ss(F0.8
F1.6
tp142
(dp143
g7
F0.12985881122537912
sg8
F0.6571040434713121
sg9
F0.014941498287474427
sss(I140
I200
tp144
(dp145
(I0
F0.8
tp146
(dp147
g7
F0.13125695216907676
sg8
F0.7285005612485064
sg9
F0.01021009228352641
ss(F1.6
F2.4
tp148
(dp149
g7
F0.13445378151260504
sg8
F0.584822464608958
sg9
F0.020775755265415037
ss(F0.8
F1.6
tp150
(dp151
g7
F0.13923166472642606
sg8
F0.6886209029066171
sg9
F0.015201314708299097
ssssS'WJets'
p152
(dp153
(I70
I100
tp154
(dp155
(I0
F0.8
tp156
(dp157
g7
F0.11314053779807204
sg8
F0.6997430956968529
sg9
F0.007730381329998137
ss(F1.6
F2.4
tp158
(dp159
g7
F0.11600537995965031
sg8
F0.5924075924075924
sg9
F0.01592446009535978
ss(F0.8
F1.6
tp160
(dp161
g7
F0.12720255076355094
sg8
F0.6678798908098271
sg9
F0.010653161019909187
sss(I600
I1000
tp162
(dp163
(I0
F0.8
tp164
(dp165
g7
F0.15
sg8
F0.5869674185463659
sg9
F0.03136180679785331
ss(F1.6
F2.4
tp166
(dp167
g7
F0.12239583333333333
sg8
F0.4375
sg9
F0.03450939994849343
ss(F0.8
F1.6
tp168
(dp169
g7
F0.14359351988217967
sg8
F0.5645756457564576
sg9
F0.04271825591672395
sss(I200
I300
tp170
(dp171
(I0
F0.8
tp172
(dp173
g7
F0.1330368858434174
sg8
F0.6564977179918328
sg9
F0.012059529732419045
ss(F1.6
F2.4
tp174
(dp175
g7
F0.1204954954954955
sg8
F0.48743718592964824
sg9
F0.023213552963245208
ss(F0.8
F1.6
tp176
(dp177
g7
F0.12946138870863075
sg8
F0.6294359357489727
sg9
F0.016766841439674895
sss(I100
I140
tp178
(dp179
(I0
F0.8
tp180
(dp181
g7
F0.12211715867158672
sg8
F0.6918340894361633
sg9
F0.007981708584493869
ss(F1.6
F2.4
tp182
(dp183
g7
F0.12059663598857505
sg8
F0.571715145436309
sg9
F0.01675977653631285
ss(F0.8
F1.6
tp184
(dp185
g7
F0.13030056864337936
sg8
F0.6640223985067663
sg9
F0.010825915576364344
sss(I1000
I-1
tp186
(dp187
(I0
F0.8
tp188
(dp189
g7
F0.16529439179742117
sg8
F0.568609022556391
sg9
F0.04158593295872893
ss(F1.6
F2.4
tp190
(dp191
g7
F0.16666666666666666
sg8
F0.45454545454545453
sg9
F0.050880626223091974
ss(F0.8
F1.6
tp192
(dp193
g7
F0.17121455323702514
sg8
F0.6023890784982935
sg9
F0.05817720805747288
sss(I50
I70
tp194
(dp195
(I0
F0.8
tp196
(dp197
g7
F0.11934093008931321
sg8
F0.6901208244491827
sg9
F0.007111774563787689
ss(F1.6
F2.4
tp198
(dp199
g7
F0.10646950092421442
sg8
F0.6111645813282002
sg9
F0.015026319987238794
ss(F0.8
F1.6
tp200
(dp201
g7
F0.11190233977619532
sg8
F0.6721149083704805
sg9
F0.010529028457828663
sss(I300
I600
tp202
(dp203
(I0
F0.8
tp204
(dp205
g7
F0.14512501081408427
sg8
F0.6303749819024178
sg9
F0.02007567654294577
ss(F1.6
F2.4
tp206
(dp207
g7
F0.11584366955300726
sg8
F0.5
sg9
F0.027685704065816143
ss(F0.8
F1.6
tp208
(dp209
g7
F0.13616719801629473
sg8
F0.5908440629470673
sg9
F0.02709968713116136
sss(I30
I50
tp210
(dp211
(I0
F0.8
tp212
(dp213
g7
F0.12384803460598082
sg8
F0.6622715706685173
sg9
F0.008519530622086482
ss(F1.6
F2.4
tp214
(dp215
g7
F0.1158890561169641
sg8
F0.569811320754717
sg9
F0.01731327608574782
ss(F0.8
F1.6
tp216
(dp217
g7
F0.12275040337594638
sg8
F0.6307506053268765
sg9
F0.01271959251944321
sss(I140
I200
tp218
(dp219
(I0
F0.8
tp220
(dp221
g7
F0.13033514752219993
sg8
F0.6751207729468599
sg9
F0.009425510706219322
ss(F1.6
F2.4
tp222
(dp223
g7
F0.11724776303609998
sg8
F0.5423553719008265
sg9
F0.0194995632097841
ss(F0.8
F1.6
tp224
(dp225
g7
F0.12455710002725538
sg8
F0.6371453138435081
sg9
F0.01410434925055287
ssss.